Certificate:
    Data:
        Version: 3 (0x2)
        Serial Number: 1 (0x1)
        Signature Algorithm: sha256WithRSAEncryption
        Issuer: C=ID, ST=ID, L=Indonesia, O=www.vpnstores.net, OU=vpnstores, CN=www.vpnstores.net CA/name=server/emailAddress=admin@vpnstores.net
        Validity
            Not Before: Jul 18 13:14:04 2020 GMT
            Not After : Jul 16 13:14:04 2030 GMT
        Subject: C=ID, ST=ID, L=Indonesia, O=www.vpnstores.net, OU=vpnstores, CN=vpnstores/name=server/emailAddress=admin@vpnstores.net
        Subject Public Key Info:
            Public Key Algorithm: rsaEncryption
                RSA Public-Key: (2048 bit)
                Modulus:
                    00:c5:ac:1b:f2:33:62:98:8e:6f:f3:0c:bf:a7:3f:
                    ce:c8:41:f9:a4:87:38:94:85:71:8a:75:bf:2d:b5:
                    84:d5:66:ec:5f:b1:e5:40:42:93:e9:82:c9:c9:a0:
                    0a:3e:60:d8:07:c6:1d:b4:8f:ac:2f:82:d3:17:17:
                    3b:32:38:7b:c3:6c:85:0c:ec:93:55:09:95:05:c8:
                    a5:a6:94:9d:48:dd:b2:0d:2e:d2:1b:01:48:d2:c4:
                    40:21:7c:3a:fe:fc:c6:e3:aa:e0:28:68:51:29:02:
                    8a:af:8b:a6:f2:97:aa:ab:9b:46:39:e3:02:0f:cb:
                    54:78:e6:41:94:d8:7e:55:76:e2:55:a2:cc:48:5c:
                    00:e9:a0:66:2e:34:6f:77:7a:f6:e9:8a:77:e4:73:
                    c2:06:c4:4b:e5:c1:5d:c9:f5:52:1d:e3:51:8a:cf:
                    0b:e5:cd:e6:d3:26:8d:fb:29:42:72:48:e6:14:90:
                    fc:bd:b0:77:98:d1:cc:dd:8d:2c:80:94:40:9b:2d:
                    1b:08:d1:f9:04:ce:e7:3b:f6:ff:3c:86:34:65:d5:
                    da:ed:d9:47:3c:83:9f:a8:fc:fb:03:52:52:7e:d4:
                    fa:ec:dd:d5:04:44:9a:d8:c6:4b:ce:8d:4e:e2:9f:
                    15:12:02:9b:2c:58:e1:7b:25:f4:33:5d:ed:55:b2:
                    e9:9b
                Exponent: 65537 (0x10001)
        X509v3 extensions:
            X509v3 Basic Constraints: 
                CA:FALSE
            Netscape Cert Type: 
                SSL Server
            Netscape Comment: 
                Easy-RSA Generated Server Certificate
            X509v3 Subject Key Identifier: 
                47:63:C2:33:1C:00:11:71:4A:93:99:BD:17:B9:ED:05:80:E7:F0:7E
            X509v3 Authority Key Identifier: 
                keyid:02:03:2C:D9:9E:90:A8:F9:10:C6:9D:21:3E:81:3F:55:73:2C:02:BF
                DirName:/C=ID/ST=ID/L=Indonesia/O=www.vpnstores.net/OU=vpnstores/CN=www.vpnstores.net CA/name=server/emailAddress=admin@vpnstores.net
                serial:05:BD:DD:BB:FB:C6:45:A5:4E:62:BA:9F:F0:62:CD:50:E1:C0:97:99

            X509v3 Extended Key Usage: 
                TLS Web Server Authentication
            X509v3 Key Usage: 
                Digital Signature, Key Encipherment
            X509v3 Subject Alternative Name: 
                DNS:vpnstores
    Signature Algorithm: sha256WithRSAEncryption
         56:5b:8a:37:59:d1:e7:e5:ab:ac:d1:1b:2b:a2:6c:9d:75:22:
         1f:f2:4a:39:c6:dd:9e:ea:16:a9:59:db:c8:69:b3:27:27:6b:
         63:87:f1:10:8a:c5:50:d6:f5:30:5d:85:2d:d6:1a:3c:59:7a:
         f3:7c:4c:d2:c7:3d:b1:4b:c6:f5:71:a8:96:7d:1d:a2:2f:61:
         06:7a:23:2a:a5:48:f4:98:b7:ac:2b:e3:16:e1:e4:d4:6b:b1:
         e4:71:d4:40:56:2b:c9:d1:c5:37:e5:2b:f9:13:e4:f0:66:3a:
         94:45:46:39:23:01:2a:b0:ba:ce:2d:b4:96:cb:d7:4d:84:57:
         38:47:b0:de:ef:e5:1b:7a:d3:10:ab:9f:7b:38:ff:22:23:8c:
         26:0b:78:14:33:24:c2:49:b6:f5:08:73:35:1c:bb:ab:c1:fa:
         a6:95:31:52:a5:9b:34:e4:c1:2e:f0:4a:85:41:a4:07:11:3e:
         7e:14:22:3c:4a:be:4b:15:a8:81:79:62:9d:2c:e3:6f:e3:e2:
         c8:42:34:be:63:3f:ff:b3:a3:6a:46:44:8e:0a:97:7c:b8:90:
         22:98:cb:7b:8f:af:d1:cb:75:cf:cb:56:9e:df:4a:a5:73:cf:
         ba:4c:f0:9f:d5:f5:55:ab:4b:bb:20:22:c1:c3:a4:c5:7b:8e:
         c6:f7:c0:3b
-----BEGIN CERTIFICATE-----
MIIFfDCCBGSgAwIBAgIBATANBgkqhkiG9w0BAQsFADCBsjELMAkGA1UEBhMCSUQx
CzAJBgNVBAgTAklEMRIwEAYDVQQHEwlJbmRvbmVzaWExGjAYBgNVBAoTEXd3dy52
cG5zdG9yZXMubmV0MRIwEAYDVQQLEwl2cG5zdG9yZXMxHTAbBgNVBAMTFHd3dy52
cG5zdG9yZXMubmV0IENBMQ8wDQYDVQQpEwZzZXJ2ZXIxIjAgBgkqhkiG9w0BCQEW
E2FkbWluQHZwbnN0b3Jlcy5uZXQwHhcNMjAwNzE4MTMxNDA0WhcNMzAwNzE2MTMx
NDA0WjCBpzELMAkGA1UEBhMCSUQxCzAJBgNVBAgTAklEMRIwEAYDVQQHEwlJbmRv
bmVzaWExGjAYBgNVBAoTEXd3dy52cG5zdG9yZXMubmV0MRIwEAYDVQQLEwl2cG5z
dG9yZXMxEjAQBgNVBAMTCXZwbnN0b3JlczEPMA0GA1UEKRMGc2VydmVyMSIwIAYJ
KoZIhvcNAQkBFhNhZG1pbkB2cG5zdG9yZXMubmV0MIIBIjANBgkqhkiG9w0BAQEF
AAOCAQ8AMIIBCgKCAQEAxawb8jNimI5v8wy/pz/OyEH5pIc4lIVxinW/LbWE1Wbs
X7HlQEKT6YLJyaAKPmDYB8YdtI+sL4LTFxc7Mjh7w2yFDOyTVQmVBcilppSdSN2y
DS7SGwFI0sRAIXw6/vzG46rgKGhRKQKKr4um8peqq5tGOeMCD8tUeOZBlNh+VXbi
VaLMSFwA6aBmLjRvd3r26Yp35HPCBsRL5cFdyfVSHeNRis8L5c3m0yaN+ylCckjm
FJD8vbB3mNHM3Y0sgJRAmy0bCNH5BM7nO/b/PIY0ZdXa7dlHPIOfqPz7A1JSftT6
7N3VBESa2MZLzo1O4p8VEgKbLFjheyX0M13tVbLpmwIDAQABo4IBpDCCAaAwCQYD
VR0TBAIwADARBglghkgBhvhCAQEEBAMCBkAwNAYJYIZIAYb4QgENBCcWJUVhc3kt
UlNBIEdlbmVyYXRlZCBTZXJ2ZXIgQ2VydGlmaWNhdGUwHQYDVR0OBBYEFEdjwjMc
ABFxSpOZvRe57QWA5/B+MIHyBgNVHSMEgeowgeeAFAIDLNmekKj5EMadIT6BP1Vz
LAK/oYG4pIG1MIGyMQswCQYDVQQGEwJJRDELMAkGA1UECBMCSUQxEjAQBgNVBAcT
CUluZG9uZXNpYTEaMBgGA1UEChMRd3d3LnZwbnN0b3Jlcy5uZXQxEjAQBgNVBAsT
CXZwbnN0b3JlczEdMBsGA1UEAxMUd3d3LnZwbnN0b3Jlcy5uZXQgQ0ExDzANBgNV
BCkTBnNlcnZlcjEiMCAGCSqGSIb3DQEJARYTYWRtaW5AdnBuc3RvcmVzLm5ldIIU
Bb3du/vGRaVOYrqf8GLNUOHAl5kwEwYDVR0lBAwwCgYIKwYBBQUHAwEwCwYDVR0P
BAQDAgWgMBQGA1UdEQQNMAuCCXZwbnN0b3JlczANBgkqhkiG9w0BAQsFAAOCAQEA
VluKN1nR5+WrrNEbK6JsnXUiH/JKOcbdnuoWqVnbyGmzJydrY4fxEIrFUNb1MF2F
LdYaPFl683xM0sc9sUvG9XGoln0doi9hBnojKqVI9Ji3rCvjFuHk1Gux5HHUQFYr
ydHFN+Ur+RPk8GY6lEVGOSMBKrC6zi20lsvXTYRXOEew3u/lG3rTEKufezj/IiOM
Jgt4FDMkwkm29QhzNRy7q8H6ppUxUqWbNOTBLvBKhUGkBxE+fhQiPEq+SxWogXli
nSzjb+PiyEI0vmM//7OjakZEjgqXfLiQIpjLe4+v0ct1z8tWnt9KpXPPukzwn9X1
VatLuyAiwcOkxXuOxvfAOw==
-----END CERTIFICATE-----
